target datalayout = "e-m:e-p270:32:32-p271:32:32-p272:64:64-i64:64-i128:128-f80:128-n8:16:32:64-S128"
target triple = "x86_64-pc-linux-gnu"

%struct.TLSX = type { i32, ptr, i32, i8, ptr }

; Function Attrs: nounwind uwtable
define void @TLSX_Remove(ptr noundef %0, i32 noundef %1, ptr noundef %2) #0 {
  %4 = alloca ptr, align 8
  %5 = alloca i32, align 4
  %6 = alloca ptr, align 8
  %7 = alloca ptr, align 8
  %8 = alloca ptr, align 8
  %9 = alloca i32, align 4
  store ptr %0, ptr %4, align 8, !tbaa !75
  store i32 %1, ptr %5, align 4, !tbaa !12
  store ptr %2, ptr %6, align 8, !tbaa !54
  call void @llvm.lifetime.start.p0(i64 8, ptr %7) #8
  call void @llvm.lifetime.start.p0(i64 8, ptr %8) #8
  %10 = load ptr, ptr %4, align 8, !tbaa !75
  %11 = icmp eq ptr %10, null
  br i1 %11, label %12, label %13

12:                                               ; preds = %3
  store i32 1, ptr %9, align 4
  br label %47

13:                                               ; preds = %3
  %14 = load ptr, ptr %4, align 8, !tbaa !75
  %15 = load ptr, ptr %14, align 8, !tbaa !77
  store ptr %15, ptr %7, align 8, !tbaa !77
  %16 = load ptr, ptr %4, align 8, !tbaa !75
  store ptr %16, ptr %8, align 8, !tbaa !75
  br label %17

17:                                               ; preds = %28, %13
  %18 = load ptr, ptr %7, align 8, !tbaa !77
  %19 = icmp ne ptr %18, null
  br i1 %19, label %20, label %26

20:                                               ; preds = %17
  %21 = load ptr, ptr %7, align 8, !tbaa !77
  %22 = getelementptr inbounds nuw %struct.TLSX, ptr %21, i32 0, i32 0
  %23 = load i32, ptr %22, align 8, !tbaa !78
  %24 = load i32, ptr %5, align 4, !tbaa !12
  %25 = icmp ne i32 %23, %24
  br label %26

26:                                               ; preds = %20, %17
  %27 = phi i1 [ false, %17 ], [ %25, %20 ]
  br i1 %27, label %28, label %34

28:                                               ; preds = %26
  %29 = load ptr, ptr %7, align 8, !tbaa !77
  %30 = getelementptr inbounds nuw %struct.TLSX, ptr %29, i32 0, i32 4
  store ptr %30, ptr %8, align 8, !tbaa !75
  %31 = load ptr, ptr %7, align 8, !tbaa !77
  %32 = getelementptr inbounds nuw %struct.TLSX, ptr %31, i32 0, i32 4
  %33 = load ptr, ptr %32, align 8, !tbaa !80
  store ptr %33, ptr %7, align 8, !tbaa !77
  br label %17, !llvm.loop !81

34:                                               ; preds = %26
  %35 = load ptr, ptr %7, align 8, !tbaa !77
  %36 = icmp ne ptr %35, null
  br i1 %36, label %37, label %46

37:                                               ; preds = %34
  %38 = load ptr, ptr %7, align 8, !tbaa !77
  %39 = getelementptr inbounds nuw %struct.TLSX, ptr %38, i32 0, i32 4
  %40 = load ptr, ptr %39, align 8, !tbaa !80
  %41 = load ptr, ptr %8, align 8, !tbaa !75
  store ptr %40, ptr %41, align 8, !tbaa !77
  %42 = load ptr, ptr %7, align 8, !tbaa !77
  %43 = getelementptr inbounds nuw %struct.TLSX, ptr %42, i32 0, i32 4
  store ptr null, ptr %43, align 8, !tbaa !80
  %44 = load ptr, ptr %7, align 8, !tbaa !77
  %45 = load ptr, ptr %6, align 8, !tbaa !54
  call void @TLSX_FreeAll(ptr noundef %44, ptr noundef %45)
  br label %46

46:                                               ; preds = %37, %34
  store i32 0, ptr %9, align 4
  br label %47

47:                                               ; preds = %46, %12
  call void @llvm.lifetime.end.p0(i64 8, ptr %8) #8
  call void @llvm.lifetime.end.p0(i64 8, ptr %7) #8
  %48 = load i32, ptr %9, align 4
  switch i32 %48, label %50 [
    i32 0, label %49
    i32 1, label %49
  ]

49:                                               ; preds = %47, %47
  ret void

50:                                               ; preds = %47
  unreachable
}