; Function Attrs: nounwind uwtable
define void @TLSX_Remove(ptr noundef captures(address_is_null) %0, i32 noundef %1, ptr noundef readnone captures(none) %2) local_unnamed_addr #0 {
  %4 = icmp eq ptr %0, null
  br i1 %4, label %.critedge16, label %.preheader

.preheader:                                       ; preds = %3
  %.01319 = load ptr, ptr %0, align 8, !tbaa !59
  %.not20 = icmp eq ptr %.01319, null
  br i1 %.not20, label %.critedge16, label %.lr.ph.preheader

.lr.ph.preheader:                                 ; preds = %.preheader
  %5 = load i32, ptr %.01319, align 8, !tbaa !60
  %.not1529 = icmp eq i32 %5, %1
  br i1 %.not1529, label %.critedge, label %.lr.ph31

.lr.ph:                                           ; preds = %.lr.ph31
  %6 = load i32, ptr %.013, align 8, !tbaa !60
  %.not15 = icmp eq i32 %6, %1
  br i1 %.not15, label %.critedge.loopexit, label %.lr.ph31, !llvm.loop !62

.lr.ph31:                                         ; preds = %.lr.ph.preheader, %.lr.ph
  %.0132230 = phi ptr [ %.013, %.lr.ph ], [ %.01319, %.lr.ph.preheader ]
  %7 = getelementptr inbounds nuw i8, ptr %.0132230, i64 24
  %.013 = load ptr, ptr %7, align 8, !tbaa !59
  %.not = icmp eq ptr %.013, null
  br i1 %.not, label %.critedge16, label %.lr.ph, !llvm.loop !62

.critedge.loopexit:                               ; preds = %.lr.ph
  %8 = getelementptr inbounds nuw i8, ptr %.0132230, i64 24
  br label %.critedge

.critedge:                                        ; preds = %.critedge.loopexit, %.lr.ph.preheader
  %.01322.lcssa = phi ptr [ %.01319, %.lr.ph.preheader ], [ %.013, %.critedge.loopexit ]
  %.021.lcssa = phi ptr [ %0, %.lr.ph.preheader ], [ %8, %.critedge.loopexit ]
  %9 = getelementptr inbounds nuw i8, ptr %.01322.lcssa, i64 24
  %10 = load ptr, ptr %9, align 8, !tbaa !63
  store ptr %10, ptr %.021.lcssa, align 8, !tbaa !59
  store ptr null, ptr %9, align 8, !tbaa !63
  tail call void @TLSX_FreeAll(ptr noundef nonnull %.01322.lcssa, ptr poison)
  br label %.critedge16

.critedge16:                                      ; preds = %.lr.ph31, %.preheader, %.critedge, %3
  ret void
}